target datalayout = "e-m:e-p270:32:32-p271:32:32-p272:64:64-i64:64-i128:128-f80:128-n8:16:32:64-S128"
target triple = "x86_64-pc-linux-gnu"

%struct.mcomp_t = type { i32, ptr, ptr, ptr }

; Function Attrs: nounwind uwtable
define internal void @close_member_types(ptr noundef %0) #0 {
  %2 = alloca ptr, align 8
  %3 = alloca i32, align 4
  store ptr %0, ptr %2, align 8
  %4 = load ptr, ptr %2, align 8
  %5 = icmp ne ptr %4, null
  br i1 %5, label %6, label %16

6:                                                ; preds = %1
  %7 = load ptr, ptr %2, align 8
  %8 = getelementptr inbounds %struct.mcomp_t, ptr %7, i32 0, i32 0
  %9 = load i32, ptr %8, align 8
  %10 = icmp ule i32 %9, 0
  br i1 %10, label %16, label %11

11:                                               ; preds = %6
  %12 = load ptr, ptr %2, align 8
  %13 = getelementptr inbounds %struct.mcomp_t, ptr %12, i32 0, i32 1
  %14 = load ptr, ptr %13, align 8
  %15 = icmp ne ptr %14, null
  br i1 %15, label %17, label %16

16:                                               ; preds = %11, %6, %1
  br label %70

17:                                               ; preds = %11
  store i32 0, ptr %3, align 4
  br label %18

18:                                               ; preds = %57, %17
  %19 = load i32, ptr %3, align 4
  %20 = load ptr, ptr %2, align 8
  %21 = getelementptr inbounds %struct.mcomp_t, ptr %20, i32 0, i32 0
  %22 = load i32, ptr %21, align 8
  %23 = icmp ult i32 %19, %22
  br i1 %23, label %24, label %60

24:                                               ; preds = %18
  %25 = load ptr, ptr %2, align 8
  %26 = getelementptr inbounds %struct.mcomp_t, ptr %25, i32 0, i32 3
  %27 = load ptr, ptr %26, align 8
  %28 = load i32, ptr %3, align 4
  %29 = zext i32 %28 to i64
  %30 = getelementptr inbounds ptr, ptr %27, i64 %29
  %31 = load ptr, ptr %30, align 8
  %32 = icmp ne ptr %31, null
  br i1 %32, label %33, label %48

33:                                               ; preds = %24
  %34 = load ptr, ptr %2, align 8
  %35 = getelementptr inbounds %struct.mcomp_t, ptr %34, i32 0, i32 3
  %36 = load ptr, ptr %35, align 8
  %37 = load i32, ptr %3, align 4
  %38 = zext i32 %37 to i64
  %39 = getelementptr inbounds ptr, ptr %36, i64 %38
  %40 = load ptr, ptr %39, align 8
  call void @close_member_types(ptr noundef %40)
  %41 = load ptr, ptr %2, align 8
  %42 = getelementptr inbounds %struct.mcomp_t, ptr %41, i32 0, i32 3
  %43 = load ptr, ptr %42, align 8
  %44 = load i32, ptr %3, align 4
  %45 = zext i32 %44 to i64
  %46 = getelementptr inbounds ptr, ptr %43, i64 %45
  %47 = load ptr, ptr %46, align 8
  call void @free(ptr noundef %47) #13
  br label %48

48:                                               ; preds = %33, %24
  %49 = load ptr, ptr %2, align 8
  %50 = getelementptr inbounds %struct.mcomp_t, ptr %49, i32 0, i32 1
  %51 = load ptr, ptr %50, align 8
  %52 = load i32, ptr %3, align 4
  %53 = zext i32 %52 to i64
  %54 = getelementptr inbounds i64, ptr %51, i64 %53
  %55 = load i64, ptr %54, align 8
  %56 = call i32 @H5Tclose(i64 noundef %55)
  br label %57

57:                                               ; preds = %48
  %58 = load i32, ptr %3, align 4
  %59 = add i32 %58, 1
  store i32 %59, ptr %3, align 4
  br label %18

60:                                               ; preds = %18
  %61 = load ptr, ptr %2, align 8
  %62 = getelementptr inbounds %struct.mcomp_t, ptr %61, i32 0, i32 3
  %63 = load ptr, ptr %62, align 8
  call void @free(ptr noundef %63) #13
  %64 = load ptr, ptr %2, align 8
  %65 = getelementptr inbounds %struct.mcomp_t, ptr %64, i32 0, i32 1
  %66 = load ptr, ptr %65, align 8
  call void @free(ptr noundef %66) #13
  %67 = load ptr, ptr %2, align 8
  %68 = getelementptr inbounds %struct.mcomp_t, ptr %67, i32 0, i32 2
  %69 = load ptr, ptr %68, align 8
  call void @free(ptr noundef %69) #13
  br label %70

70:                                               ; preds = %60, %16
  ret void
}