; Function Attrs: nounwind uwtable
define internal fastcc void @close_member_types(ptr noundef readonly %0) unnamed_addr #0 {
  %.not = icmp eq ptr %0, null
  br i1 %.not, label %30, label %2

2:                                                ; preds = %1
  %3 = load i32, ptr %0, align 8
  %4 = icmp eq i32 %3, 0
  br i1 %4, label %30, label %5

5:                                                ; preds = %2
  %6 = getelementptr inbounds i8, ptr %0, i64 8
  %7 = load ptr, ptr %6, align 8
  %.not18 = icmp eq ptr %7, null
  br i1 %.not18, label %30, label %.lr.ph

.lr.ph:                                           ; preds = %5
  %8 = getelementptr inbounds i8, ptr %0, i64 24
  br label %9

9:                                                ; preds = %.lr.ph, %17
  %indvars.iv = phi i64 [ 0, %.lr.ph ], [ %indvars.iv.next, %17 ]
  %10 = load ptr, ptr %8, align 8
  %11 = getelementptr inbounds ptr, ptr %10, i64 %indvars.iv
  %12 = load ptr, ptr %11, align 8
  %.not19 = icmp eq ptr %12, null
  br i1 %.not19, label %17, label %13

13:                                               ; preds = %9
  tail call fastcc void @close_member_types(ptr noundef nonnull %12)
  %14 = load ptr, ptr %8, align 8
  %15 = getelementptr inbounds ptr, ptr %14, i64 %indvars.iv
  %16 = load ptr, ptr %15, align 8
  tail call void @free(ptr noundef %16) #14
  br label %17

17:                                               ; preds = %13, %9
  %18 = load ptr, ptr %6, align 8
  %19 = getelementptr inbounds i64, ptr %18, i64 %indvars.iv
  %20 = load i64, ptr %19, align 8
  %21 = tail call i32 @H5Tclose(i64 noundef %20) #14
  %indvars.iv.next = add nuw nsw i64 %indvars.iv, 1
  %22 = load i32, ptr %0, align 8
  %23 = zext i32 %22 to i64
  %24 = icmp ult i64 %indvars.iv.next, %23
  br i1 %24, label %9, label %._crit_edge

._crit_edge:                                      ; preds = %17
  %25 = getelementptr inbounds i8, ptr %0, i64 24
  %26 = load ptr, ptr %25, align 8
  tail call void @free(ptr noundef %26) #14
  %27 = load ptr, ptr %6, align 8
  tail call void @free(ptr noundef %27) #14
  %28 = getelementptr inbounds i8, ptr %0, i64 16
  %29 = load ptr, ptr %28, align 8
  tail call void @free(ptr noundef %29) #14
  br label %30

30:                                               ; preds = %1, %2, %5, %._crit_edge
  ret void
}